; Function Attrs: nounwind uwtable
define void @gvrender_begin_label(ptr noundef %0, i32 noundef %1) local_unnamed_addr #0 {
  %3 = getelementptr inbounds nuw i8, ptr %0, i64 120
  %4 = load ptr, ptr %3, align 8, !tbaa !47
  %.not = icmp eq ptr %4, null
  br i1 %.not, label %9, label %5

5:                                                ; preds = %2
  %6 = getelementptr inbounds nuw i8, ptr %4, i64 160
  %7 = load ptr, ptr %6, align 8, !tbaa !102
  %.not6 = icmp eq ptr %7, null
  br i1 %.not6, label %9, label %8

8:                                                ; preds = %5
  tail call void %7(ptr noundef nonnull %0, i32 noundef %1) #22
  br label %9

9:                                                ; preds = %5, %8, %2
  ret void
}